target datalayout = "e-m:e-p270:32:32-p271:32:32-p272:64:64-i64:64-i128:128-f80:128-n8:16:32:64-S128"
target triple = "x86_64-pc-linux-gnu"

%"class.google::protobuf::internal::InternalMetadata" = type { i64 }
%"class.google::protobuf::RepeatedField" = type { i32, i32, ptr }
%"class.google::protobuf::RepeatedField.0" = type { i32, i32, ptr }
%"class.google::protobuf::RepeatedField.1" = type { i32, i32, ptr }
%"class.google::protobuf::RepeatedField.2" = type { i32, i32, ptr }
%"class.opencv_tensorflow::AttrValue_ListValue" = type <{ %"class.google::protobuf::Message", %"class.google::protobuf::RepeatedPtrField", %"class.google::protobuf::RepeatedField", %"struct.std::atomic", [4 x i8], %"class.google::protobuf::RepeatedField.0", %"class.google::protobuf::RepeatedField.1", %"class.google::protobuf::RepeatedField.2", %"struct.std::atomic", [4 x i8], %"class.google::protobuf::RepeatedPtrField.3", %"class.google::protobuf::RepeatedPtrField.4", %"class.google::protobuf::internal::CachedSize", [4 x i8] }>
%"class.google::protobuf::Message" = type { %"class.google::protobuf::MessageLite" }
%"class.google::protobuf::MessageLite" = type { ptr, %"class.google::protobuf::internal::InternalMetadata" }
%"class.google::protobuf::RepeatedPtrField" = type { %"class.google::protobuf::internal::RepeatedPtrFieldBase" }
%"class.google::protobuf::internal::RepeatedPtrFieldBase" = type { ptr, i32, i32, ptr }
%"struct.std::atomic" = type { %"struct.std::__atomic_base" }
%"struct.std::__atomic_base" = type { i32 }
%"class.google::protobuf::RepeatedPtrField.3" = type { %"class.google::protobuf::internal::RepeatedPtrFieldBase" }
%"class.google::protobuf::RepeatedPtrField.4" = type { %"class.google::protobuf::internal::RepeatedPtrFieldBase" }
%"class.google::protobuf::internal::CachedSize" = type { %"struct.std::atomic" }
%"class.google::protobuf::internal::LogMessage" = type { i32, ptr, i32, %"class.std::__cxx11::basic_string" }
%"class.std::__cxx11::basic_string" = type { %"struct.std::__cxx11::basic_string<char>::_Alloc_hider", i64, %union.anon.11 }
%"struct.std::__cxx11::basic_string<char>::_Alloc_hider" = type { ptr }
%union.anon.11 = type { i64, [8 x i8] }
%"class.google::protobuf::internal::LogFinisher" = type { i8 }
%"struct.google::protobuf::internal::RepeatedPtrFieldBase::Rep" = type { i32, [268435454 x ptr] }

@.str.14 = private unnamed_addr constant [150 x i8] c"generated/home/dtcxzyw/WorkSpace/Projects/compilers/llvm-opt-benchmark/bench/opencv/opencv/3rdparty/protobuf/src/google/protobuf/repeated_ptr_field.h\00", align 1
@.str.20 = private unnamed_addr constant [27 x i8] c"CHECK failed: (n) >= (0): \00", align 1

; Function Attrs: inlinehint mustprogress uwtable
define linkonce_odr hidden void @_ZN6google8protobuf8internal18GenericTypeHandlerIN17opencv_tensorflow16TensorShapeProtoEE5ClearEPS4_(ptr noundef %0) #5 comdat align 2 {
  %2 = alloca ptr, align 8
  store ptr %0, ptr %2, align 8, !tbaa !107
  %3 = load ptr, ptr %2, align 8, !tbaa !107
  call void @_ZN17opencv_tensorflow16TensorShapeProto5ClearEv(ptr noundef nonnull align 8 dereferenceable(48) %3)
  ret void
}

; Function Attrs: inlinehint mustprogress nounwind uwtable
define linkonce_odr hidden noundef ptr @_ZN6google8protobuf8internal20RepeatedPtrFieldBase4castINS0_16RepeatedPtrFieldIN17opencv_tensorflow16TensorShapeProtoEE11TypeHandlerEEEPNT_4TypeEPv(ptr noundef %0) #6 comdat align 2 {
  %2 = alloca ptr, align 8
  store ptr %0, ptr %2, align 8, !tbaa !57
  %3 = load ptr, ptr %2, align 8, !tbaa !57
  ret ptr %3
}

; Function Attrs: mustprogress uwtable
define linkonce_odr hidden void @_ZN6google8protobuf8internal20RepeatedPtrFieldBase5ClearINS0_16RepeatedPtrFieldIN17opencv_tensorflow16TensorShapeProtoEE11TypeHandlerEEEvv(ptr noundef nonnull align 8 dereferenceable(24) %0) #4 comdat align 2 personality ptr @__gxx_personality_v0 {
  %2 = alloca ptr, align 8
  %3 = alloca i32, align 4
  %4 = alloca %"class.google::protobuf::internal::LogMessage", align 8
  %5 = alloca i1, align 1
  %6 = alloca i1, align 1
  %7 = alloca ptr, align 8
  %8 = alloca i32, align 4
  %9 = alloca %"class.google::protobuf::internal::LogFinisher", align 1
  %10 = alloca ptr, align 8
  %11 = alloca i32, align 4
  store ptr %0, ptr %2, align 8, !tbaa !237
  %12 = load ptr, ptr %2, align 8
  call void @llvm.lifetime.start.p0(i64 4, ptr %3) #3
  %13 = getelementptr inbounds nuw %"class.google::protobuf::internal::RepeatedPtrFieldBase", ptr %12, i32 0, i32 1
  %14 = load i32, ptr %13, align 8, !tbaa !242
  store i32 %14, ptr %3, align 4, !tbaa !58
  br label %15

15:                                               ; preds = %30, %1
  br i1 false, label %16, label %46

16:                                               ; preds = %15
  %17 = load i32, ptr %3, align 4, !tbaa !58
  %18 = icmp sge i32 %17, 0
  store i1 false, ptr %5, align 1
  store i1 false, ptr %6, align 1
  call void @llvm.lifetime.start.p0(i64 1, ptr %9) #3
  br i1 %18, label %19, label %20

19:                                               ; preds = %16
  br label %24

20:                                               ; preds = %16
  call void @llvm.lifetime.start.p0(i64 56, ptr %4) #3
  store i1 true, ptr %5, align 1
  call void @_ZN6google8protobuf8internal10LogMessageC1ENS0_8LogLevelEPKci(ptr noundef nonnull align 8 dereferenceable(56) %4, i32 noundef 3, ptr noundef @.str.14, i32 noundef 926)
  store i1 true, ptr %6, align 1
  %21 = invoke noundef nonnull align 8 dereferenceable(56) ptr @_ZN6google8protobuf8internal10LogMessagelsEPKc(ptr noundef nonnull align 8 dereferenceable(56) %4, ptr noundef @.str.20)
          to label %22 unwind label %31

22:                                               ; preds = %20
  invoke void @_ZN6google8protobuf8internal11LogFinisheraSERNS1_10LogMessageE(ptr noundef nonnull align 1 dereferenceable(1) %9, ptr noundef nonnull align 8 dereferenceable(56) %21)
          to label %23 unwind label %35

23:                                               ; preds = %22
  br label %24

24:                                               ; preds = %23, %19
  call void @llvm.lifetime.end.p0(i64 1, ptr %9) #3
  %25 = load i1, ptr %6, align 1
  br i1 %25, label %26, label %27

26:                                               ; preds = %24
  call void @_ZN6google8protobuf8internal10LogMessageD1Ev(ptr noundef nonnull align 8 dereferenceable(56) %4) #3
  br label %27

27:                                               ; preds = %26, %24
  %28 = load i1, ptr %5, align 1
  br i1 %28, label %29, label %30

29:                                               ; preds = %27
  call void @llvm.lifetime.end.p0(i64 56, ptr %4) #3
  br label %30

30:                                               ; preds = %29, %27
  br label %15, !llvm.loop !365

31:                                               ; preds = %20
  %32 = landingpad { ptr, i32 }
          cleanup
  %33 = extractvalue { ptr, i32 } %32, 0
  store ptr %33, ptr %7, align 8
  %34 = extractvalue { ptr, i32 } %32, 1
  store i32 %34, ptr %8, align 4
  br label %39

35:                                               ; preds = %22
  %36 = landingpad { ptr, i32 }
          cleanup
  %37 = extractvalue { ptr, i32 } %36, 0
  store ptr %37, ptr %7, align 8
  %38 = extractvalue { ptr, i32 } %36, 1
  store i32 %38, ptr %8, align 4
  call void @llvm.lifetime.end.p0(i64 1, ptr %9) #3
  br label %39

39:                                               ; preds = %35, %31
  %40 = load i1, ptr %6, align 1
  br i1 %40, label %41, label %42

41:                                               ; preds = %39
  call void @_ZN6google8protobuf8internal10LogMessageD1Ev(ptr noundef nonnull align 8 dereferenceable(56) %4) #3
  br label %42

42:                                               ; preds = %41, %39
  %43 = load i1, ptr %5, align 1
  br i1 %43, label %44, label %45

44:                                               ; preds = %42
  call void @llvm.lifetime.end.p0(i64 56, ptr %4) #3
  br label %45

45:                                               ; preds = %44, %42
  call void @llvm.lifetime.end.p0(i64 4, ptr %3) #3
  br label %69

46:                                               ; preds = %15
  %47 = load i32, ptr %3, align 4, !tbaa !58
  %48 = icmp sgt i32 %47, 0
  br i1 %48, label %49, label %68

49:                                               ; preds = %46
  call void @llvm.lifetime.start.p0(i64 8, ptr %10) #3
  %50 = getelementptr inbounds nuw %"class.google::protobuf::internal::RepeatedPtrFieldBase", ptr %12, i32 0, i32 3
  %51 = load ptr, ptr %50, align 8, !tbaa !239
  %52 = getelementptr inbounds nuw %"struct.google::protobuf::internal::RepeatedPtrFieldBase::Rep", ptr %51, i32 0, i32 1
  %53 = getelementptr inbounds [268435454 x ptr], ptr %52, i64 0, i64 0
  store ptr %53, ptr %10, align 8, !tbaa !322
  call void @llvm.lifetime.start.p0(i64 4, ptr %11) #3
  store i32 0, ptr %11, align 4, !tbaa !58
  br label %54

54:                                               ; preds = %62, %49
  %55 = load ptr, ptr %10, align 8, !tbaa !322
  %56 = load i32, ptr %11, align 4, !tbaa !58
  %57 = add nsw i32 %56, 1
  store i32 %57, ptr %11, align 4, !tbaa !58
  %58 = sext i32 %56 to i64
  %59 = getelementptr inbounds ptr, ptr %55, i64 %58
  %60 = load ptr, ptr %59, align 8, !tbaa !57
  %61 = call noundef ptr @_ZN6google8protobuf8internal20RepeatedPtrFieldBase4castINS0_16RepeatedPtrFieldIN17opencv_tensorflow16TensorShapeProtoEE11TypeHandlerEEEPNT_4TypeEPv(ptr noundef %60)
  call void @_ZN6google8protobuf8internal18GenericTypeHandlerIN17opencv_tensorflow16TensorShapeProtoEE5ClearEPS4_(ptr noundef %61)
  br label %62

62:                                               ; preds = %54
  %63 = load i32, ptr %11, align 4, !tbaa !58
  %64 = load i32, ptr %3, align 4, !tbaa !58
  %65 = icmp slt i32 %63, %64
  br i1 %65, label %54, label %66, !llvm.loop !366

66:                                               ; preds = %62
  %67 = getelementptr inbounds nuw %"class.google::protobuf::internal::RepeatedPtrFieldBase", ptr %12, i32 0, i32 1
  store i32 0, ptr %67, align 8, !tbaa !242
  call void @llvm.lifetime.end.p0(i64 4, ptr %11) #3
  call void @llvm.lifetime.end.p0(i64 8, ptr %10) #3
  br label %68

68:                                               ; preds = %66, %46
  call void @llvm.lifetime.end.p0(i64 4, ptr %3) #3
  ret void

69:                                               ; preds = %45
  %70 = load ptr, ptr %7, align 8
  %71 = load i32, ptr %8, align 4
  %72 = insertvalue { ptr, i32 } poison, ptr %70, 0
  %73 = insertvalue { ptr, i32 } %72, i32 %71, 1
  resume { ptr, i32 } %73
}

; Function Attrs: inlinehint mustprogress uwtable
define linkonce_odr hidden void @_ZN6google8protobuf16RepeatedPtrFieldIN17opencv_tensorflow16TensorShapeProtoEE5ClearEv(ptr noundef nonnull align 8 dereferenceable(24) %0) #5 comdat align 2 {
  %2 = alloca ptr, align 8
  store ptr %0, ptr %2, align 8, !tbaa !8
  %3 = load ptr, ptr %2, align 8
  call void @_ZN6google8protobuf8internal20RepeatedPtrFieldBase5ClearINS0_16RepeatedPtrFieldIN17opencv_tensorflow16TensorShapeProtoEE11TypeHandlerEEEvv(ptr noundef nonnull align 8 dereferenceable(24) %3)
  ret void
}

; Function Attrs: mustprogress uwtable
define hidden void @_ZN17opencv_tensorflow19AttrValue_ListValue11clear_shapeEv(ptr noundef nonnull align 8 dereferenceable(176) %0) #4 align 2 {
  %2 = alloca ptr, align 8
  store ptr %0, ptr %2, align 8, !tbaa !3
  %3 = load ptr, ptr %2, align 8
  %4 = getelementptr inbounds nuw %"class.opencv_tensorflow::AttrValue_ListValue", ptr %3, i32 0, i32 10
  call void @_ZN6google8protobuf16RepeatedPtrFieldIN17opencv_tensorflow16TensorShapeProtoEE5ClearEv(ptr noundef nonnull align 8 dereferenceable(24) %4)
  ret void
}